Certificate:
    Data:
        Version: 3 (0x2)
        Serial Number: 1 (0x1)
        Signature Algorithm: sha1WithRSAEncryption
        Issuer: C=BA, ST=RS, L=Banja Luka, O=Elektrotehnicki fakultet, OU=ETF, CN=rootCA/emailAddress=rootca@gmail.com
        Validity
            Not Before: Mar 29 07:57:21 2023 GMT
            Not After : Sep 29 07:57:21 2023 GMT
        Subject: C=BA, ST=RS, O=Elektrotehnicki fakultet, OU=ETF, CN=Katarina/emailAddress=katarina@gmail.com
        Subject Public Key Info:
            Public Key Algorithm: rsaEncryption
                RSA Public-Key: (2048 bit)
                Modulus:
                    00:b4:92:71:a3:8d:79:69:b1:03:cb:8b:d9:53:d1:
                    c3:55:b3:2d:20:68:bc:c5:8d:cb:d0:d9:8c:a0:c6:
                    83:7f:b7:1d:29:60:e2:46:8b:6a:dc:fe:7d:c1:c3:
                    75:ac:23:ef:31:4a:c2:04:17:a9:ec:ca:db:29:f7:
                    40:3a:22:43:3e:9d:38:2b:22:30:fe:bb:f4:c4:cb:
                    89:27:10:7a:cf:0d:e3:06:27:a5:fc:22:2b:65:46:
                    9b:21:cd:f1:c4:bd:3e:7c:f2:c1:db:4e:8b:e6:eb:
                    9a:be:e0:57:d0:38:2c:ce:dd:26:1a:68:35:02:9e:
                    fc:c3:57:83:ec:18:c2:ae:81:91:47:cd:b3:2d:fe:
                    17:38:2b:fa:1a:1d:0f:be:3f:6d:10:2f:0e:cb:bb:
                    7b:d8:43:53:e3:c7:95:d9:53:c7:4b:02:45:b3:cb:
                    b2:4d:cd:63:47:51:c2:df:b4:83:9d:42:2e:86:ec:
                    a3:ea:e3:2f:ab:c0:ba:60:b9:5d:66:bb:b7:3e:90:
                    ed:e9:da:bf:f7:89:ae:d9:dd:bd:b0:6a:89:28:e7:
                    3e:98:11:77:24:03:b6:8f:a3:48:75:21:8b:0e:82:
                    29:cb:db:b8:2b:a1:0a:e1:93:25:c5:dd:2a:35:7f:
                    32:7d:4b:41:54:f9:63:19:f7:85:21:d6:4f:e2:81:
                    8c:95
                Exponent: 65537 (0x10001)
        X509v3 extensions:
            X509v3 Basic Constraints: 
                CA:FALSE
            X509v3 Key Usage: 
                Encipher Only, Decipher Only
            Netscape Comment: 
                OpenSSL Generated Certificate
            X509v3 Subject Key Identifier: 
                21:BA:D4:69:2B:EC:3F:DF:2B:B9:38:4A:99:05:04:ED:F4:95:A9:EB
            X509v3 Authority Key Identifier: 
                keyid:2F:3A:C0:37:6C:7E:0E:8D:97:73:2C:51:24:81:00:24:E7:4F:08:7D

            X509v3 CRL Distribution Points: 

                Full Name:
                  URI:http://192.168.21.89/rootcrl.pem

    Signature Algorithm: sha1WithRSAEncryption
         2f:34:9d:d1:c3:48:67:a9:7b:a2:21:78:c4:fc:5e:b8:b0:48:
         cd:26:44:7c:e3:20:ee:75:81:3b:44:39:a0:2b:8c:e7:6d:9c:
         da:4f:f8:b1:63:84:92:7d:6d:b9:7e:f7:0c:41:d4:92:91:f4:
         c0:3e:5e:94:cd:be:a4:2c:88:48:a5:cd:01:53:fc:62:30:eb:
         cc:ac:6e:96:22:23:ed:97:24:ee:37:f0:19:2b:d1:02:45:0f:
         a3:6b:7b:4f:4e:b7:26:09:f7:41:aa:23:eb:5b:dd:ea:e0:fa:
         5e:91:4a:0a:9f:69:6a:3e:95:a0:33:b1:c2:69:aa:5b:b9:e2:
         4b:90:9a:37:84:cd:3c:bc:b0:e8:19:6a:e8:1d:37:b2:89:f9:
         42:72:57:44:ac:f2:03:9d:96:88:d5:26:90:d7:72:43:40:03:
         89:73:2f:87:0f:5a:c8:ce:60:c7:21:ba:16:40:db:ce:fd:ed:
         0e:30:5b:35:fe:15:f6:ea:79:06:a3:6f:91:08:bd:00:d9:08:
         27:a1:50:1e:49:35:2e:56:6a:0c:1c:fd:80:3a:91:54:a8:da:
         37:aa:96:e9:03:7f:f0:25:56:16:7c:8d:33:cf:16:2a:20:55:
         07:c2:30:15:1d:d0:2f:3c:4f:98:a3:7c:3f:b8:ab:30:4c:73:
         2d:ac:0d:75:eb:e7:34:18:60:97:f7:b0:c3:bf:cf:46:6b:4e:
         1e:4f:e2:80:87:96:08:fc:83:2b:c7:ce:0d:17:b0:50:a7:e8:
         80:a8:e0:22:48:71:35:b0:27:ca:a1:f5:67:0c:e7:35:56:d6:
         55:2c:39:8e:86:aa:d7:96:85:ac:c9:8f:38:50:ae:72:4b:d0:
         87:55:4a:fe:49:f1:af:11:50:4e:c8:33:5b:21:8c:5b:71:1b:
         8d:f6:e4:7f:b8:ed:68:b3:ca:bb:85:c2:0b:14:74:9f:bf:08:
         a5:33:65:18:38:b4:42:19:6d:a3:fd:d3:b9:19:a8:b0:da:95:
         35:bb:9f:66:65:fa:5e:d0:95:a3:53:be:f5:98:92:5b:3b:b8:
         20:98:f6:cd:30:b7:f5:a9:3f:9d:d3:13:0c:d8:6f:3b:81:18:
         05:8d:05:7c:d7:26:c2:b0:d4:09:c2:e0:7d:2c:3e:b3:98:13:
         06:ba:4c:26:64:28:a4:5e:99:0f:1d:47:21:d4:65:9d:41:42:
         65:43:24:9c:c4:c8:3d:7f:df:ba:1b:9f:77:27:d0:08:19:2d:
         14:b8:dc:a7:cf:85:f7:51:2e:7e:17:dc:9f:77:a8:df:e2:92:
         65:02:ec:64:c8:8a:a8:46:e6:1c:e7:9e:3f:f4:d9:e4:c0:da:
         55:92:2e:04:88:61:d0:5b
-----BEGIN CERTIFICATE-----
MIIFTjCCAzagAwIBAgIBATANBgkqhkiG9w0BAQUFADCBkjELMAkGA1UEBhMCQkEx
CzAJBgNVBAgTAlJTMRMwEQYDVQQHEwpCYW5qYSBMdWthMSEwHwYDVQQKExhFbGVr
dHJvdGVobmlja2kgZmFrdWx0ZXQxDDAKBgNVBAsTA0VURjEPMA0GA1UEAxMGcm9v
dENBMR8wHQYJKoZIhvcNAQkBFhByb290Y2FAZ21haWwuY29tMB4XDTIzMDMyOTA3
NTcyMVoXDTIzMDkyOTA3NTcyMVowgYExCzAJBgNVBAYTAkJBMQswCQYDVQQIEwJS
UzEhMB8GA1UEChMYRWxla3Ryb3RlaG5pY2tpIGZha3VsdGV0MQwwCgYDVQQLEwNF
VEYxETAPBgNVBAMTCEthdGFyaW5hMSEwHwYJKoZIhvcNAQkBFhJrYXRhcmluYUBn
bWFpbC5jb20wggEiMA0GCSqGSIb3DQEBAQUAA4IBDwAwggEKAoIBAQC0knGjjXlp
sQPLi9lT0cNVsy0gaLzFjcvQ2YygxoN/tx0pYOJGi2rc/n3Bw3WsI+8xSsIEF6ns
ytsp90A6IkM+nTgrIjD+u/TEy4knEHrPDeMGJ6X8IitlRpshzfHEvT588sHbTovm
65q+4FfQOCzO3SYaaDUCnvzDV4PsGMKugZFHzbMt/hc4K/oaHQ++P20QLw7Lu3vY
Q1Pjx5XZU8dLAkWzy7JNzWNHUcLftIOdQi6G7KPq4y+rwLpguV1mu7c+kO3p2r/3
ia7Z3b2waoko5z6YEXckA7aPo0h1IYsOginL27groQrhkyXF3So1fzJ9S0FU+WMZ
94Uh1k/igYyVAgMBAAGjgb0wgbowCQYDVR0TBAIwADAMBgNVHQ8EBQMDBwGAMCwG
CWCGSAGG+EIBDQQfFh1PcGVuU1NMIEdlbmVyYXRlZCBDZXJ0aWZpY2F0ZTAdBgNV
HQ4EFgQUIbrUaSvsP98ruThKmQUE7fSVqeswHwYDVR0jBBgwFoAULzrAN2x+Do2X
cyxRJIEAJOdPCH0wMQYDVR0fBCowKDAmoCSgIoYgaHR0cDovLzE5Mi4xNjguMjEu
ODkvcm9vdGNybC5wZW0wDQYJKoZIhvcNAQEFBQADggIBAC80ndHDSGepe6IheMT8
XriwSM0mRHzjIO51gTtEOaArjOdtnNpP+LFjhJJ9bbl+9wxB1JKR9MA+XpTNvqQs
iEilzQFT/GIw68ysbpYiI+2XJO438Bkr0QJFD6Nre09OtyYJ90GqI+tb3erg+l6R
SgqfaWo+laAzscJpqlu54kuQmjeEzTy8sOgZaugdN7KJ+UJyV0Ss8gOdlojVJpDX
ckNAA4lzL4cPWsjOYMchuhZA28797Q4wWzX+FfbqeQajb5EIvQDZCCehUB5JNS5W
agwc/YA6kVSo2jeqlukDf/AlVhZ8jTPPFiogVQfCMBUd0C88T5ijfD+4qzBMcy2s
DXXr5zQYYJf3sMO/z0ZrTh5P4oCHlgj8gyvHzg0XsFCn6ICo4CJIcTWwJ8qh9WcM
5zVW1lUsOY6GqteWhazJjzhQrnJL0IdVSv5J8a8RUE7IM1shjFtxG4325H+47Wiz
yruFwgsUdJ+/CKUzZRg4tEIZbaP907kZqLDalTW7n2Zl+l7QlaNTvvWYkls7uCCY
9s0wt/WpP53TEwzYbzuBGAWNBXzXJsKw1AnC4H0sPrOYEwa6TCZkKKRemQ8dRyHU
ZZ1BQmVDJJzEyD1/37obn3cn0AgZLRS43KfPhfdRLn4X3J93qN/ikmUC7GTIiqhG
5hznnj/02eTA2lWSLgSIYdBb
-----END CERTIFICATE-----
