Certificate:
    Data:
        Version: 3 (0x2)
        Serial Number: 2 (0x2)
        Signature Algorithm: sha1WithRSAEncryption
        Issuer: C=BA, ST=RS, L=Banja Luka, O=Elektrotehnicki fakultet, OU=ETF, CN=rootCA/emailAddress=rootca@gmail.com
        Validity
            Not Before: Mar 29 09:39:24 2023 GMT
            Not After : Sep 29 09:39:24 2023 GMT
        Subject: C=BA, ST=RS, O=Elektrotehnicki fakultet, OU=ETF, CN=Marija/emailAddress=marija@gmail.com
        Subject Public Key Info:
            Public Key Algorithm: rsaEncryption
                RSA Public-Key: (2048 bit)
                Modulus:
                    00:bd:cf:76:ae:ed:b1:d7:5c:fa:cd:ea:6e:a6:1f:
                    93:1c:2a:62:45:58:9b:e3:79:03:fa:46:73:28:ac:
                    25:e9:78:02:12:a5:fe:42:ab:3d:c0:15:3d:f8:78:
                    49:40:37:e1:f1:1f:18:36:d7:35:b9:f0:1a:3c:75:
                    c2:21:ab:b4:a2:f2:5b:8b:c2:bd:f1:91:e5:ab:7a:
                    8a:43:aa:6a:3b:30:d2:83:cf:7a:88:50:e8:e9:fb:
                    97:ed:32:0a:6d:37:9d:ba:5e:16:66:36:87:73:e5:
                    ae:08:f9:88:8a:48:35:23:aa:7f:06:47:b9:a9:ed:
                    17:4f:c9:b7:6a:c8:20:4b:ba:38:d9:0c:5c:23:cd:
                    fb:e7:73:87:e6:6e:05:05:65:be:ba:05:84:6c:40:
                    f4:14:9b:31:91:ff:66:da:67:b9:94:4e:48:fb:c4:
                    ce:e1:db:e4:3b:16:0c:70:3b:fc:70:9b:0f:6e:86:
                    8a:7d:19:32:63:75:f3:ae:30:d4:28:02:1f:29:8e:
                    c6:cb:61:6b:ea:03:e4:b7:99:f9:31:20:80:b2:ac:
                    d4:28:30:58:2a:03:62:fb:bf:96:ca:a6:e0:d3:c6:
                    d6:b8:56:a3:95:1c:23:08:cf:15:3a:82:5f:12:ac:
                    4d:2c:09:be:2c:ea:47:05:cb:eb:ff:7e:be:6c:9e:
                    c2:d5
                Exponent: 65537 (0x10001)
        X509v3 extensions:
            X509v3 Basic Constraints: 
                CA:FALSE
            X509v3 Key Usage: 
                Encipher Only, Decipher Only
            Netscape Comment: 
                OpenSSL Generated Certificate
            X509v3 Subject Key Identifier: 
                60:0E:B6:F8:58:9F:49:E2:90:8E:C3:41:1C:2B:67:26:E4:F7:68:80
            X509v3 Authority Key Identifier: 
                keyid:2F:3A:C0:37:6C:7E:0E:8D:97:73:2C:51:24:81:00:24:E7:4F:08:7D

            X509v3 CRL Distribution Points: 

                Full Name:
                  URI:http://192.168.21.89/rootcrl.pem

    Signature Algorithm: sha1WithRSAEncryption
         23:7d:32:62:f6:05:52:a2:01:f5:68:39:40:4b:47:1d:57:c3:
         a5:b4:a7:03:eb:cc:dc:89:3b:a5:58:5e:5b:09:51:40:5b:62:
         e3:95:e2:49:fe:94:4e:01:6f:11:4f:21:4c:37:9a:8f:db:8c:
         a1:48:67:5d:cd:9e:5d:94:e7:42:c0:29:51:2a:b6:ac:77:2c:
         be:ee:4d:78:ca:c5:28:03:2d:ec:9c:1d:b3:1e:1e:bb:8f:20:
         87:cb:f8:3c:bd:59:f1:3f:b7:14:e9:4d:a8:e7:a3:a9:19:e3:
         cb:8f:6f:a8:24:8c:60:92:80:b8:55:bf:64:8a:8e:6d:12:af:
         77:17:e1:8d:be:22:ba:b7:d2:0f:45:be:78:48:97:a8:6d:2e:
         a9:9a:dc:ce:3b:31:b1:21:f1:3c:92:a5:a9:fe:f2:4a:28:6e:
         d2:38:ad:e4:5b:e5:91:54:c4:6a:93:a6:71:2b:4b:46:db:12:
         5c:99:01:02:30:c6:b3:dc:63:43:b1:2d:b5:d9:50:b3:e0:de:
         e2:d5:29:49:79:72:fa:89:55:80:29:5c:64:f4:6a:9b:1e:f4:
         b9:1b:92:13:3e:1a:1c:10:d1:e4:33:05:67:8d:a9:99:09:49:
         f1:82:be:8e:74:d7:79:19:b6:75:fa:dd:8e:83:72:a9:8c:5f:
         e5:c0:53:ef:09:56:46:25:f5:3e:a7:4c:a3:63:96:33:21:40:
         50:f3:ec:df:6b:2b:67:2e:73:e2:2a:fd:99:b4:6a:14:8c:6e:
         da:32:fd:17:22:02:55:a5:35:61:70:71:05:33:30:03:7c:0f:
         47:02:cd:c7:8e:7c:67:fd:c8:26:02:65:14:8d:2c:93:83:46:
         d5:3c:c4:dc:e2:7f:a6:c0:78:95:7e:57:df:9f:44:5f:37:c7:
         45:f2:a3:ba:63:51:91:d0:6c:37:af:08:ff:3b:8b:36:93:d7:
         b2:95:74:fb:be:6c:12:2f:c6:a7:87:18:bb:8f:88:78:ce:ad:
         0b:d2:6f:b8:80:86:bc:56:4a:37:95:f5:7e:8b:69:3b:0f:2a:
         46:8f:78:4d:55:0b:b7:f4:b3:ed:c3:6b:4f:57:cb:cf:a3:52:
         b6:e0:67:68:2e:0c:29:fe:e1:bc:25:76:be:21:6a:c4:c1:7e:
         4b:ba:4a:6c:ff:32:f0:87:93:7a:d3:a4:89:10:3f:99:4d:0a:
         af:7b:e4:48:58:9b:64:4b:3e:da:a9:f6:e0:79:4d:44:b4:3f:
         3d:ef:42:91:5e:e5:94:5b:35:8b:e2:c1:67:c6:fd:e4:29:21:
         4b:53:37:b8:e5:57:81:9a:35:53:e4:c4:d5:5a:b1:09:b2:36:
         60:ca:d9:7c:cf:60:e3:c9
-----BEGIN CERTIFICATE-----
MIIFSTCCAzGgAwIBAgIBAjANBgkqhkiG9w0BAQUFADCBkjELMAkGA1UEBhMCQkEx
CzAJBgNVBAgTAlJTMRMwEQYDVQQHEwpCYW5qYSBMdWthMSEwHwYDVQQKExhFbGVr
dHJvdGVobmlja2kgZmFrdWx0ZXQxDDAKBgNVBAsTA0VURjEPMA0GA1UEAxMGcm9v
dENBMR8wHQYJKoZIhvcNAQkBFhByb290Y2FAZ21haWwuY29tMB4XDTIzMDMyOTA5
MzkyNFoXDTIzMDkyOTA5MzkyNFowfTELMAkGA1UEBhMCQkExCzAJBgNVBAgTAlJT
MSEwHwYDVQQKExhFbGVrdHJvdGVobmlja2kgZmFrdWx0ZXQxDDAKBgNVBAsTA0VU
RjEPMA0GA1UEAxMGTWFyaWphMR8wHQYJKoZIhvcNAQkBFhBtYXJpamFAZ21haWwu
Y29tMIIBIjANBgkqhkiG9w0BAQEFAAOCAQ8AMIIBCgKCAQEAvc92ru2x11z6zepu
ph+THCpiRVib43kD+kZzKKwl6XgCEqX+Qqs9wBU9+HhJQDfh8R8YNtc1ufAaPHXC
Iau0ovJbi8K98ZHlq3qKQ6pqOzDSg896iFDo6fuX7TIKbTedul4WZjaHc+WuCPmI
ikg1I6p/Bke5qe0XT8m3asggS7o42QxcI83753OH5m4FBWW+ugWEbED0FJsxkf9m
2me5lE5I+8TO4dvkOxYMcDv8cJsPboaKfRkyY3XzrjDUKAIfKY7Gy2Fr6gPkt5n5
MSCAsqzUKDBYKgNi+7+Wyqbg08bWuFajlRwjCM8VOoJfEqxNLAm+LOpHBcvr/36+
bJ7C1QIDAQABo4G9MIG6MAkGA1UdEwQCMAAwDAYDVR0PBAUDAwcBgDAsBglghkgB
hvhCAQ0EHxYdT3BlblNTTCBHZW5lcmF0ZWQgQ2VydGlmaWNhdGUwHQYDVR0OBBYE
FGAOtvhYn0nikI7DQRwrZybk92iAMB8GA1UdIwQYMBaAFC86wDdsfg6Nl3MsUSSB
ACTnTwh9MDEGA1UdHwQqMCgwJqAkoCKGIGh0dHA6Ly8xOTIuMTY4LjIxLjg5L3Jv
b3RjcmwucGVtMA0GCSqGSIb3DQEBBQUAA4ICAQAjfTJi9gVSogH1aDlAS0cdV8Ol
tKcD68zciTulWF5bCVFAW2LjleJJ/pROAW8RTyFMN5qP24yhSGddzZ5dlOdCwClR
Krasdyy+7k14ysUoAy3snB2zHh67jyCHy/g8vVnxP7cU6U2o56OpGePLj2+oJIxg
koC4Vb9kio5tEq93F+GNviK6t9IPRb54SJeobS6pmtzOOzGxIfE8kqWp/vJKKG7S
OK3kW+WRVMRqk6ZxK0tG2xJcmQECMMaz3GNDsS212VCz4N7i1SlJeXL6iVWAKVxk
9GqbHvS5G5ITPhocENHkMwVnjamZCUnxgr6OdNd5GbZ1+t2Og3KpjF/lwFPvCVZG
JfU+p0yjY5YzIUBQ8+zfaytnLnPiKv2ZtGoUjG7aMv0XIgJVpTVhcHEFMzADfA9H
As3Hjnxn/cgmAmUUjSyTg0bVPMTc4n+mwHiVflffn0RfN8dF8qO6Y1GR0Gw3rwj/
O4s2k9eylXT7vmwSL8anhxi7j4h4zq0L0m+4gIa8Vko3lfV+i2k7DypGj3hNVQu3
9LPtw2tPV8vPo1K24GdoLgwp/uG8JXa+IWrEwX5Lukps/zLwh5N606SJED+ZTQqv
e+RIWJtkSz7aqfbgeU1EtD8970KRXuWUWzWL4sFnxv3kKSFLUze45VeBmjVT5MTV
WrEJsjZgytl8z2DjyQ==
-----END CERTIFICATE-----
